Certificate:
    Data:
        Version: 3 (0x2)
        Serial Number: 0 (0x0)
        Signature Algorithm: sha256WithRSAEncryption
        Issuer: C=CN, ST=BeiJing, L=BeiJing, O=qlssl, OU=IT/emailAddress=qlssl@qlssl.cn
        Validity
            Not Before: Mar 14 04:36:56 2025 GMT
            Not After : Mar 12 04:36:56 2035 GMT
        Subject: C=CN, ST=GuiZhou, O=Organization, OU=IT, CN=localhost/emailAddress=boss@oi-io.cc
        Subject Public Key Info:
            Public Key Algorithm: id-ecPublicKey
                Public-Key: (384 bit)
                pub:
                    04:7c:9c:9e:fb:03:d5:24:44:1a:f7:71:0e:0f:3c:
                    b3:1f:cc:41:04:80:75:e8:35:31:91:13:79:9c:d6:
                    ef:f1:28:21:da:9c:aa:c7:2b:2d:4c:29:be:5b:7f:
                    a4:2f:48:41:40:c8:58:f3:80:b6:0c:63:95:21:5b:
                    be:46:17:40:fb:8b:d1:e6:c1:dc:81:eb:c4:40:c2:
                    35:9c:ac:62:05:85:f0:a0:35:88:0d:44:84:ab:ec:
                    6c:94:d6:c8:2d:c1:97
                ASN1 OID: secp384r1
                NIST CURVE: P-384
        X509v3 extensions:
            X509v3 Basic Constraints: 
                CA:FALSE
            X509v3 Key Usage: 
                Digital Signature, Non Repudiation, Key Encipherment
            X509v3 Subject Alternative Name: 
                DNS:localhost, IP Address:192.168.0.116
            X509v3 Subject Key Identifier: 
                1A:D1:2C:07:6B:DC:D1:B9:63:26:DE:6B:BC:4B:6E:3F:EF:10:5F:16
            X509v3 Authority Key Identifier: 
                67:38:5C:47:3F:82:2F:E6:15:69:44:23:9A:2F:0F:01:F0:C0:F6:91
    Signature Algorithm: sha256WithRSAEncryption
    Signature Value:
        89:cf:b8:9d:8b:7e:74:cf:aa:99:64:83:ee:f8:d1:67:ca:bf:
        d4:cd:8d:47:8c:12:6c:84:77:0d:f9:1a:53:4b:05:51:97:b4:
        c9:f0:34:18:37:f3:7a:d8:6d:b9:3a:c6:22:b6:9a:d9:fa:ee:
        3f:58:ec:d7:96:f3:ad:49:19:37:d2:68:73:02:44:bb:e5:99:
        47:b2:86:ae:21:32:2f:c1:d0:b4:09:c0:9e:6f:9f:a4:7b:47:
        40:51:19:aa:c0:65:cb:dc:c8:6c:84:58:1a:8f:a7:fa:21:2e:
        63:de:68:79:c5:39:9d:54:28:f7:9a:85:18:68:d4:37:21:a2:
        44:7c:86:bd:ce:97:08:f3:34:ea:79:0a:5c:fc:aa:a9:4b:c6:
        73:0f:96:c6:aa:ab:bb:49:12:ca:af:69:85:0c:07:0a:ed:e9:
        80:84:66:74:2d:59:24:e1:1f:0e:4f:29:35:cf:7f:98:3d:a4:
        df:db:4d:0a:a3:51:a2:5c:7d:82:a1:4b:05:80:4a:3b:40:ea:
        2a:55:f9:2f:66:43:63:3a:dd:97:05:b0:5d:a6:03:09:6d:67:
        66:96:3f:53:a8:ea:29:bf:e5:e7:2e:62:3d:8a:0a:b0:60:e3:
        00:09:f3:d1:95:e9:66:60:b3:f0:e4:65:f7:60:93:72:31:4e:
        d9:03:35:2f
-----BEGIN CERTIFICATE-----
MIIDJTCCAg2gAwIBAgIBADANBgkqhkiG9w0BAQsFADBtMQswCQYDVQQGEwJDTjEQ
MA4GA1UECAwHQmVpSmluZzEQMA4GA1UEBwwHQmVpSmluZzEOMAwGA1UECgwFcWxz
c2wxCzAJBgNVBAsMAklUMR0wGwYJKoZIhvcNAQkBFg5xbHNzbEBxbHNzbC5jbjAe
Fw0yNTAzMTQwNDM2NTZaFw0zNTAzMTIwNDM2NTZaMHUxCzAJBgNVBAYTAkNOMRAw
DgYDVQQIDAdHdWlaaG91MRUwEwYDVQQKDAxPcmdhbml6YXRpb24xCzAJBgNVBAsM
AklUMRIwEAYDVQQDDAlsb2NhbGhvc3QxHDAaBgkqhkiG9w0BCQEWDWJvc3NAb2kt
aW8uY2MwdjAQBgcqhkjOPQIBBgUrgQQAIgNiAAR8nJ77A9UkRBr3cQ4PPLMfzEEE
gHXoNTGRE3mc1u/xKCHanKrHKy1MKb5bf6QvSEFAyFjzgLYMY5UhW75GF0D7i9Hm
wdyB68RAwjWcrGIFhfCgNYgNRISr7GyU1sgtwZejdjB0MAkGA1UdEwQCMAAwCwYD
VR0PBAQDAgXgMBoGA1UdEQQTMBGCCWxvY2FsaG9zdIcEwKgAdDAdBgNVHQ4EFgQU
GtEsB2vc0bljJt5rvEtuP+8QXxYwHwYDVR0jBBgwFoAUZzhcRz+CL+YVaUQjmi8P
AfDA9pEwDQYJKoZIhvcNAQELBQADggEBAInPuJ2LfnTPqplkg+740WfKv9TNjUeM
EmyEdw35GlNLBVGXtMnwNBg383rYbbk6xiK2mtn67j9Y7NeW861JGTfSaHMCRLvl
mUeyhq4hMi/B0LQJwJ5vn6R7R0BRGarAZcvcyGyEWBqPp/ohLmPeaHnFOZ1UKPea
hRho1DchokR8hr3OlwjzNOp5Clz8qqlLxnMPlsaqq7tJEsqvaYUMBwrt6YCEZnQt
WSThHw5PKTXPf5g9pN/bTQqjUaJcfYKhSwWASjtA6ipV+S9mQ2M63ZcFsF2mAwlt
Z2aWP1Oo6im/5ecuYj2KCrBg4wAJ89GV6WZgs/DkZfdgk3IxTtkDNS8=
-----END CERTIFICATE-----
